target datalayout = "e-m:e-p270:32:32-p271:32:32-p272:64:64-i64:64-i128:128-f80:128-n8:16:32:64-S128"
target triple = "x86_64-pc-linux-gnu"

%struct.Prelin16Data = type { ptr, i32, i32, [15 x ptr], [15 x ptr], ptr, ptr, ptr, ptr }

; Function Attrs: nounwind uwtable
define internal void @PrelinEval16(ptr noundef %0, ptr noundef %1, ptr noundef %2) #0 {
  %4 = alloca ptr, align 8
  %5 = alloca ptr, align 8
  %6 = alloca ptr, align 8
  %7 = alloca ptr, align 8
  %8 = alloca [15 x i16], align 16
  %9 = alloca [16 x i16], align 16
  %10 = alloca i32, align 4
  store ptr %0, ptr %4, align 8
  store ptr %1, ptr %5, align 8
  store ptr %2, ptr %6, align 8
  %11 = load ptr, ptr %6, align 8
  store ptr %11, ptr %7, align 8
  store i32 0, ptr %10, align 4
  br label %12

12:                                               ; preds = %38, %3
  %13 = load i32, ptr %10, align 4
  %14 = load ptr, ptr %7, align 8
  %15 = getelementptr inbounds %struct.Prelin16Data, ptr %14, i32 0, i32 1
  %16 = load i32, ptr %15, align 8
  %17 = icmp ult i32 %13, %16
  br i1 %17, label %18, label %41

18:                                               ; preds = %12
  %19 = load ptr, ptr %7, align 8
  %20 = getelementptr inbounds %struct.Prelin16Data, ptr %19, i32 0, i32 3
  %21 = load i32, ptr %10, align 4
  %22 = zext i32 %21 to i64
  %23 = getelementptr inbounds [15 x ptr], ptr %20, i64 0, i64 %22
  %24 = load ptr, ptr %23, align 8
  %25 = load ptr, ptr %4, align 8
  %26 = load i32, ptr %10, align 4
  %27 = zext i32 %26 to i64
  %28 = getelementptr inbounds i16, ptr %25, i64 %27
  %29 = load i32, ptr %10, align 4
  %30 = zext i32 %29 to i64
  %31 = getelementptr inbounds [15 x i16], ptr %8, i64 0, i64 %30
  %32 = load ptr, ptr %7, align 8
  %33 = getelementptr inbounds %struct.Prelin16Data, ptr %32, i32 0, i32 4
  %34 = load i32, ptr %10, align 4
  %35 = zext i32 %34 to i64
  %36 = getelementptr inbounds [15 x ptr], ptr %33, i64 0, i64 %35
  %37 = load ptr, ptr %36, align 8
  call void %24(ptr noundef %28, ptr noundef %31, ptr noundef %37)
  br label %38

38:                                               ; preds = %18
  %39 = load i32, ptr %10, align 4
  %40 = add i32 %39, 1
  store i32 %40, ptr %10, align 4
  br label %12, !llvm.loop !23

41:                                               ; preds = %12
  %42 = load ptr, ptr %7, align 8
  %43 = getelementptr inbounds %struct.Prelin16Data, ptr %42, i32 0, i32 5
  %44 = load ptr, ptr %43, align 8
  %45 = getelementptr inbounds [15 x i16], ptr %8, i64 0, i64 0
  %46 = getelementptr inbounds [16 x i16], ptr %9, i64 0, i64 0
  %47 = load ptr, ptr %7, align 8
  %48 = getelementptr inbounds %struct.Prelin16Data, ptr %47, i32 0, i32 6
  %49 = load ptr, ptr %48, align 8
  call void %44(ptr noundef %45, ptr noundef %46, ptr noundef %49)
  store i32 0, ptr %10, align 4
  br label %50

50:                                               ; preds = %78, %41
  %51 = load i32, ptr %10, align 4
  %52 = load ptr, ptr %7, align 8
  %53 = getelementptr inbounds %struct.Prelin16Data, ptr %52, i32 0, i32 2
  %54 = load i32, ptr %53, align 4
  %55 = icmp ult i32 %51, %54
  br i1 %55, label %56, label %81

56:                                               ; preds = %50
  %57 = load ptr, ptr %7, align 8
  %58 = getelementptr inbounds %struct.Prelin16Data, ptr %57, i32 0, i32 7
  %59 = load ptr, ptr %58, align 8
  %60 = load i32, ptr %10, align 4
  %61 = zext i32 %60 to i64
  %62 = getelementptr inbounds ptr, ptr %59, i64 %61
  %63 = load ptr, ptr %62, align 8
  %64 = load i32, ptr %10, align 4
  %65 = zext i32 %64 to i64
  %66 = getelementptr inbounds [16 x i16], ptr %9, i64 0, i64 %65
  %67 = load ptr, ptr %5, align 8
  %68 = load i32, ptr %10, align 4
  %69 = zext i32 %68 to i64
  %70 = getelementptr inbounds i16, ptr %67, i64 %69
  %71 = load ptr, ptr %7, align 8
  %72 = getelementptr inbounds %struct.Prelin16Data, ptr %71, i32 0, i32 8
  %73 = load ptr, ptr %72, align 8
  %74 = load i32, ptr %10, align 4
  %75 = zext i32 %74 to i64
  %76 = getelementptr inbounds ptr, ptr %73, i64 %75
  %77 = load ptr, ptr %76, align 8
  call void %63(ptr noundef %66, ptr noundef %70, ptr noundef %77)
  br label %78

78:                                               ; preds = %56
  %79 = load i32, ptr %10, align 4
  %80 = add i32 %79, 1
  store i32 %80, ptr %10, align 4
  br label %50, !llvm.loop !24

81:                                               ; preds = %50
  ret void
}