; Function Attrs: nounwind uwtable
define internal void @PrelinEval16(ptr noundef %0, ptr noundef %1, ptr nocapture noundef readonly %2) #0 {
  %4 = alloca [15 x i16], align 16
  %5 = alloca [16 x i16], align 16
  %6 = getelementptr inbounds i8, ptr %2, i64 8
  %7 = load i32, ptr %6, align 8
  %.not = icmp eq i32 %7, 0
  br i1 %.not, label %._crit_edge, label %.lr.ph

.lr.ph:                                           ; preds = %3
  %8 = getelementptr inbounds i8, ptr %2, i64 16
  %9 = getelementptr inbounds i8, ptr %2, i64 136
  br label %10

10:                                               ; preds = %.lr.ph, %10
  %indvars.iv = phi i64 [ 0, %.lr.ph ], [ %indvars.iv.next, %10 ]
  %11 = getelementptr inbounds [15 x ptr], ptr %8, i64 0, i64 %indvars.iv
  %12 = load ptr, ptr %11, align 8
  %13 = getelementptr inbounds i16, ptr %0, i64 %indvars.iv
  %14 = getelementptr inbounds [15 x i16], ptr %4, i64 0, i64 %indvars.iv
  %15 = getelementptr inbounds [15 x ptr], ptr %9, i64 0, i64 %indvars.iv
  %16 = load ptr, ptr %15, align 8
  call void %12(ptr noundef %13, ptr noundef nonnull %14, ptr noundef %16) #10
  %indvars.iv.next = add nuw nsw i64 %indvars.iv, 1
  %17 = load i32, ptr %6, align 8
  %18 = zext i32 %17 to i64
  %19 = icmp ult i64 %indvars.iv.next, %18
  br i1 %19, label %10, label %._crit_edge, !llvm.loop !24

._crit_edge:                                      ; preds = %10, %3
  %20 = getelementptr inbounds i8, ptr %2, i64 256
  %21 = load ptr, ptr %20, align 8
  %22 = getelementptr inbounds i8, ptr %2, i64 264
  %23 = load ptr, ptr %22, align 8
  call void %21(ptr noundef nonnull %4, ptr noundef nonnull %5, ptr noundef %23) #10
  %24 = getelementptr inbounds i8, ptr %2, i64 12
  %25 = load i32, ptr %24, align 4
  %.not27 = icmp eq i32 %25, 0
  br i1 %.not27, label %._crit_edge26, label %.lr.ph25

.lr.ph25:                                         ; preds = %._crit_edge
  %26 = getelementptr inbounds i8, ptr %2, i64 272
  %27 = getelementptr inbounds i8, ptr %2, i64 280
  br label %28

28:                                               ; preds = %.lr.ph25, %28
  %indvars.iv29 = phi i64 [ 0, %.lr.ph25 ], [ %indvars.iv.next30, %28 ]
  %29 = load ptr, ptr %26, align 8
  %30 = getelementptr inbounds ptr, ptr %29, i64 %indvars.iv29
  %31 = load ptr, ptr %30, align 8
  %32 = getelementptr inbounds [16 x i16], ptr %5, i64 0, i64 %indvars.iv29
  %33 = getelementptr inbounds i16, ptr %1, i64 %indvars.iv29
  %34 = load ptr, ptr %27, align 8
  %35 = getelementptr inbounds ptr, ptr %34, i64 %indvars.iv29
  %36 = load ptr, ptr %35, align 8
  call void %31(ptr noundef nonnull %32, ptr noundef %33, ptr noundef %36) #10
  %indvars.iv.next30 = add nuw nsw i64 %indvars.iv29, 1
  %37 = load i32, ptr %24, align 4
  %38 = zext i32 %37 to i64
  %39 = icmp ult i64 %indvars.iv.next30, %38
  br i1 %39, label %28, label %._crit_edge26, !llvm.loop !25

._crit_edge26:                                    ; preds = %28, %._crit_edge
  ret void
}